target datalayout = "e-m:e-p270:32:32-p271:32:32-p272:64:64-i64:64-i128:128-f80:128-n8:16:32:64-S128"
target triple = "x86_64-pc-linux-gnu"

%"class.std::__cxx11::basic_string" = type { %"struct.std::__cxx11::basic_string<char>::_Alloc_hider", i64, %union.anon }
%"struct.std::__cxx11::basic_string<char>::_Alloc_hider" = type { ptr }
%union.anon = type { i64, [8 x i8] }

@.str.144 = private unnamed_addr constant [3 x i8] c"ZZ\00", align 1

; Function Attrs: mustprogress nounwind uwtable
define linkonce_odr dso_local noundef zeroext i1 @_ZSteqIcSt11char_traitsIcESaIcEEbRKNSt7__cxx1112basic_stringIT_T0_T1_EEPKS5_(ptr noundef nonnull align 8 dereferenceable(32) %0, ptr noundef %1) #5 comdat {
  %3 = alloca ptr, align 8
  %4 = alloca ptr, align 8
  store ptr %0, ptr %3, align 8
  store ptr %1, ptr %4, align 8
  %5 = load ptr, ptr %3, align 8
  %6 = load ptr, ptr %4, align 8
  %7 = call noundef i32 @_ZNKSt7__cxx1112basic_stringIcSt11char_traitsIcESaIcEE7compareEPKc(ptr noundef nonnull align 8 dereferenceable(32) %5, ptr noundef %6) #3
  %8 = icmp eq i32 %7, 0
  ret i1 %8
}

; Function Attrs: mustprogress nounwind uwtable
define linkonce_odr dso_local noundef ptr @_ZN4i18n12phonenumbers10RegionCode2ZZEv() #5 comdat align 2 {
  ret ptr @.str.144
}

; Function Attrs: mustprogress nounwind uwtable
define linkonce_odr dso_local noundef zeroext i1 @_ZStneIcSt11char_traitsIcESaIcEEbRKNSt7__cxx1112basic_stringIT_T0_T1_EEPKS5_(ptr noundef nonnull align 8 dereferenceable(32) %0, ptr noundef %1) #5 comdat {
  %3 = alloca ptr, align 8
  %4 = alloca ptr, align 8
  store ptr %0, ptr %3, align 8
  store ptr %1, ptr %4, align 8
  %5 = load ptr, ptr %3, align 8
  %6 = load ptr, ptr %4, align 8
  %7 = call noundef zeroext i1 @_ZSteqIcSt11char_traitsIcESaIcEEbRKNSt7__cxx1112basic_stringIT_T0_T1_EEPKS5_(ptr noundef nonnull align 8 dereferenceable(32) %5, ptr noundef %6)
  %8 = xor i1 %7, true
  ret i1 %8
}

; Function Attrs: mustprogress uwtable
define linkonce_odr dso_local noundef ptr @_ZN4i18n12phonenumbers10RegionCode10GetUnknownEv() #4 comdat align 2 {
  %1 = call noundef ptr @_ZN4i18n12phonenumbers10RegionCode2ZZEv()
  ret ptr %1
}

; Function Attrs: mustprogress uwtable
define dso_local noundef i32 @_ZNK4i18n12phonenumbers15PhoneNumberUtil18ExtractCountryCodeEPNSt7__cxx1112basic_stringIcSt11char_traitsIcESaIcEEE(ptr noundef nonnull align 8 dereferenceable(64) %0, ptr noundef %1) #4 align 2 personality ptr @__gxx_personality_v0 {
  %3 = alloca i32, align 4
  %4 = alloca ptr, align 8
  %5 = alloca ptr, align 8
  %6 = alloca i32, align 4
  %7 = alloca i64, align 8
  %8 = alloca %"class.std::__cxx11::basic_string", align 8
  %9 = alloca ptr, align 8
  %10 = alloca i32, align 4
  %11 = alloca %"class.std::__cxx11::basic_string", align 8
  %12 = alloca i32, align 4
  store ptr %0, ptr %4, align 8
  store ptr %1, ptr %5, align 8
  %13 = load ptr, ptr %4, align 8
  %14 = load ptr, ptr %5, align 8
  %15 = call noundef zeroext i1 @_ZNKSt7__cxx1112basic_stringIcSt11char_traitsIcESaIcEE5emptyEv(ptr noundef nonnull align 8 dereferenceable(32) %14) #3
  br i1 %15, label %22, label %16

16:                                               ; preds = %2
  %17 = load ptr, ptr %5, align 8
  %18 = call noundef nonnull align 1 dereferenceable(1) ptr @_ZNSt7__cxx1112basic_stringIcSt11char_traitsIcESaIcEE2atEm(ptr noundef nonnull align 8 dereferenceable(32) %17, i64 noundef 0)
  %19 = load i8, ptr %18, align 1
  %20 = sext i8 %19 to i32
  %21 = icmp eq i32 %20, 48
  br i1 %21, label %22, label %23

22:                                               ; preds = %16, %2
  store i32 0, ptr %3, align 4
  br label %59

23:                                               ; preds = %16
  store i64 1, ptr %7, align 8
  br label %24

24:                                               ; preds = %55, %23
  %25 = load i64, ptr %7, align 8
  %26 = icmp ule i64 %25, 3
  br i1 %26, label %27, label %58

27:                                               ; preds = %24
  %28 = load ptr, ptr %5, align 8
  %29 = load i64, ptr %7, align 8
  call void @_ZNKSt7__cxx1112basic_stringIcSt11char_traitsIcESaIcEE6substrEmm(ptr dead_on_unwind writable sret(%"class.std::__cxx11::basic_string") align 8 %8, ptr noundef nonnull align 8 dereferenceable(32) %28, i64 noundef 0, i64 noundef %29)
  invoke void @_ZN4i18n12phonenumbers12safe_strto32ERKNSt7__cxx1112basic_stringIcSt11char_traitsIcESaIcEEEPi(ptr noundef nonnull align 8 dereferenceable(32) %8, ptr noundef %6)
          to label %30 unwind label %43

30:                                               ; preds = %27
  call void @_ZNSt7__cxx1112basic_stringIcSt11char_traitsIcESaIcEED1Ev(ptr noundef nonnull align 8 dereferenceable(32) %8) #3
  call void @_ZNSt7__cxx1112basic_stringIcSt11char_traitsIcESaIcEEC1Ev(ptr noundef nonnull align 8 dereferenceable(32) %11) #3
  %31 = load i32, ptr %6, align 4
  invoke void @_ZNK4i18n12phonenumbers15PhoneNumberUtil27GetRegionCodeForCountryCodeEiPNSt7__cxx1112basic_stringIcSt11char_traitsIcESaIcEEE(ptr noundef nonnull align 8 dereferenceable(64) %13, i32 noundef %31, ptr noundef %11)
          to label %32 unwind label %47

32:                                               ; preds = %30
  %33 = invoke noundef ptr @_ZN4i18n12phonenumbers10RegionCode10GetUnknownEv()
          to label %34 unwind label %47

34:                                               ; preds = %32
  %35 = invoke noundef zeroext i1 @_ZStneIcSt11char_traitsIcESaIcEEbRKNSt7__cxx1112basic_stringIT_T0_T1_EEPKS5_(ptr noundef nonnull align 8 dereferenceable(32) %11, ptr noundef %33)
          to label %36 unwind label %47

36:                                               ; preds = %34
  br i1 %35, label %37, label %51

37:                                               ; preds = %36
  %38 = load ptr, ptr %5, align 8
  %39 = load i64, ptr %7, align 8
  %40 = invoke noundef nonnull align 8 dereferenceable(32) ptr @_ZNSt7__cxx1112basic_stringIcSt11char_traitsIcESaIcEE5eraseEmm(ptr noundef nonnull align 8 dereferenceable(32) %38, i64 noundef 0, i64 noundef %39)
          to label %41 unwind label %47

41:                                               ; preds = %37
  %42 = load i32, ptr %6, align 4
  store i32 %42, ptr %3, align 4
  store i32 1, ptr %12, align 4
  br label %52

43:                                               ; preds = %27
  %44 = landingpad { ptr, i32 }
          cleanup
  %45 = extractvalue { ptr, i32 } %44, 0
  store ptr %45, ptr %9, align 8
  %46 = extractvalue { ptr, i32 } %44, 1
  store i32 %46, ptr %10, align 4
  call void @_ZNSt7__cxx1112basic_stringIcSt11char_traitsIcESaIcEED1Ev(ptr noundef nonnull align 8 dereferenceable(32) %8) #3
  br label %61

47:                                               ; preds = %37, %34, %32, %30
  %48 = landingpad { ptr, i32 }
          cleanup
  %49 = extractvalue { ptr, i32 } %48, 0
  store ptr %49, ptr %9, align 8
  %50 = extractvalue { ptr, i32 } %48, 1
  store i32 %50, ptr %10, align 4
  call void @_ZNSt7__cxx1112basic_stringIcSt11char_traitsIcESaIcEED1Ev(ptr noundef nonnull align 8 dereferenceable(32) %11) #3
  br label %61

51:                                               ; preds = %36
  store i32 0, ptr %12, align 4
  br label %52

52:                                               ; preds = %51, %41
  call void @_ZNSt7__cxx1112basic_stringIcSt11char_traitsIcESaIcEED1Ev(ptr noundef nonnull align 8 dereferenceable(32) %11) #3
  %53 = load i32, ptr %12, align 4
  switch i32 %53, label %66 [
    i32 0, label %54
    i32 1, label %59
  ]

54:                                               ; preds = %52
  br label %55

55:                                               ; preds = %54
  %56 = load i64, ptr %7, align 8
  %57 = add i64 %56, 1
  store i64 %57, ptr %7, align 8
  br label %24, !llvm.loop !26

58:                                               ; preds = %24
  store i32 0, ptr %3, align 4
  br label %59

59:                                               ; preds = %58, %52, %22
  %60 = load i32, ptr %3, align 4
  ret i32 %60

61:                                               ; preds = %47, %43
  %62 = load ptr, ptr %9, align 8
  %63 = load i32, ptr %10, align 4
  %64 = insertvalue { ptr, i32 } poison, ptr %62, 0
  %65 = insertvalue { ptr, i32 } %64, i32 %63, 1
  resume { ptr, i32 } %65

66:                                               ; preds = %52
  unreachable
}