; Function Attrs: mustprogress uwtable
define dso_local noundef i32 @_ZNK4i18n12phonenumbers15PhoneNumberUtil18ExtractCountryCodeEPNSt7__cxx1112basic_stringIcSt11char_traitsIcESaIcEEE(ptr nocapture noundef nonnull readonly align 8 dereferenceable(64) %0, ptr noundef nonnull %1) local_unnamed_addr #4 align 2 personality ptr @__gxx_personality_v0 {
  %3 = alloca i32, align 4
  %4 = alloca %"class.std::__cxx11::basic_string", align 8
  %5 = alloca %"class.std::__cxx11::basic_string", align 8
  %6 = tail call noundef zeroext i1 @_ZNKSt7__cxx1112basic_stringIcSt11char_traitsIcESaIcEE5emptyEv(ptr noundef nonnull align 8 dereferenceable(32) %1) #26
  br i1 %6, label %.loopexit, label %7

7:                                                ; preds = %2
  %8 = tail call noundef nonnull align 1 dereferenceable(1) ptr @_ZNSt7__cxx1112basic_stringIcSt11char_traitsIcESaIcEE2atEm(ptr noundef nonnull align 8 dereferenceable(32) %1, i64 noundef 0)
  %9 = load i8, ptr %8, align 1
  %10 = icmp eq i8 %9, 48
  br i1 %10, label %.loopexit, label %.preheader

.preheader:                                       ; preds = %7, %21
  %.01424 = phi i64 [ %22, %21 ], [ 1, %7 ]
  call void @_ZNKSt7__cxx1112basic_stringIcSt11char_traitsIcESaIcEE6substrEmm(ptr dead_on_unwind nonnull writable sret(%"class.std::__cxx11::basic_string") align 8 %4, ptr noundef nonnull align 8 dereferenceable(32) %1, i64 noundef 0, i64 noundef %.01424)
  invoke void @_ZN4i18n12phonenumbers12safe_strto32ERKNSt7__cxx1112basic_stringIcSt11char_traitsIcESaIcEEEPi(ptr noundef nonnull align 8 dereferenceable(32) %4, ptr noundef nonnull %3)
          to label %11 unwind label %17

11:                                               ; preds = %.preheader
  call void @_ZNSt7__cxx1112basic_stringIcSt11char_traitsIcESaIcEED1Ev(ptr noundef nonnull align 8 dereferenceable(32) %4) #26
  call void @_ZNSt7__cxx1112basic_stringIcSt11char_traitsIcESaIcEEC1Ev(ptr noundef nonnull align 8 dereferenceable(32) %5) #26
  %12 = load i32, ptr %3, align 4
  invoke void @_ZNK4i18n12phonenumbers15PhoneNumberUtil27GetRegionCodeForCountryCodeEiPNSt7__cxx1112basic_stringIcSt11char_traitsIcESaIcEEE(ptr noundef nonnull align 8 dereferenceable(64) %0, i32 noundef %12, ptr noundef nonnull %5)
          to label %13 unwind label %.loopexit20

13:                                               ; preds = %11
  %14 = call noundef i32 @_ZNKSt7__cxx1112basic_stringIcSt11char_traitsIcESaIcEE7compareEPKc(ptr noundef nonnull align 8 dereferenceable(32) %5, ptr noundef nonnull @.str.144) #26
  %.not = icmp eq i32 %14, 0
  br i1 %.not, label %21, label %15

15:                                               ; preds = %13
  %16 = invoke noundef nonnull align 8 dereferenceable(32) ptr @_ZNSt7__cxx1112basic_stringIcSt11char_traitsIcESaIcEE5eraseEmm(ptr noundef nonnull align 8 dereferenceable(32) %1, i64 noundef 0, i64 noundef %.01424)
          to label %19 unwind label %.loopexit.split-lp

17:                                               ; preds = %.preheader
  %18 = landingpad { ptr, i32 }
          cleanup
  br label %23

.loopexit20:                                      ; preds = %11
  %lpad.loopexit = landingpad { ptr, i32 }
          cleanup
  br label %23

.loopexit.split-lp:                               ; preds = %15
  %lpad.loopexit.split-lp = landingpad { ptr, i32 }
          cleanup
  br label %23

19:                                               ; preds = %15
  %20 = load i32, ptr %3, align 4
  call void @_ZNSt7__cxx1112basic_stringIcSt11char_traitsIcESaIcEED1Ev(ptr noundef nonnull align 8 dereferenceable(32) %5) #26
  br label %.loopexit

21:                                               ; preds = %13
  call void @_ZNSt7__cxx1112basic_stringIcSt11char_traitsIcESaIcEED1Ev(ptr noundef nonnull align 8 dereferenceable(32) %5) #26
  %22 = add nuw nsw i64 %.01424, 1
  %exitcond.not = icmp eq i64 %22, 4
  br i1 %exitcond.not, label %.loopexit, label %.preheader, !llvm.loop !333

.loopexit:                                        ; preds = %21, %19, %2, %7
  %.2 = phi i32 [ %20, %19 ], [ 0, %7 ], [ 0, %2 ], [ 0, %21 ]
  ret i32 %.2

23:                                               ; preds = %.loopexit20, %.loopexit.split-lp, %17
  %.sink = phi ptr [ %4, %17 ], [ %5, %.loopexit.split-lp ], [ %5, %.loopexit20 ]
  %.pn = phi { ptr, i32 } [ %18, %17 ], [ %lpad.loopexit.split-lp, %.loopexit.split-lp ], [ %lpad.loopexit, %.loopexit20 ]
  call void @_ZNSt7__cxx1112basic_stringIcSt11char_traitsIcESaIcEED1Ev(ptr noundef nonnull align 8 dereferenceable(32) %.sink) #26
  resume { ptr, i32 } %.pn
}